
build/os.elf:     file format elf32-littlearm


Disassembly of section .vectors:

82000000 <_start>:
82000000:	e59ff018 	ldr	pc, [pc, #24]	@ 82000020 <_start+0x20>
82000004:	e59ff018 	ldr	pc, [pc, #24]	@ 82000024 <_start+0x24>
82000008:	e59ff018 	ldr	pc, [pc, #24]	@ 82000028 <_start+0x28>
8200000c:	e59ff018 	ldr	pc, [pc, #24]	@ 8200002c <_start+0x2c>
82000010:	e59ff018 	ldr	pc, [pc, #24]	@ 82000030 <_start+0x30>
82000014:	e320f000 	nop	{0}
82000018:	e59ff014 	ldr	pc, [pc, #20]	@ 82000034 <_start+0x34>
8200001c:	e59ff014 	ldr	pc, [pc, #20]	@ 82000038 <_start+0x38>
82000020:	8200003c 	.word	0x8200003c
82000024:	8200014c 	.word	0x8200014c
82000028:	82000150 	.word	0x82000150
8200002c:	82000154 	.word	0x82000154
82000030:	82000158 	.word	0x82000158
82000034:	82000078 	.word	0x82000078
82000038:	8200015c 	.word	0x8200015c

Disassembly of section .text:

8200003c <reset_handler>:
8200003c:	e321f0df 	msr	CPSR_c, #223	@ 0xdf
82000040:	e59fd118 	ldr	sp, [pc, #280]	@ 82000160 <fiq_handler+0x4>
82000044:	e59f0118 	ldr	r0, [pc, #280]	@ 82000164 <fiq_handler+0x8>
82000048:	ee0c0f10 	mcr	15, 0, r0, cr12, cr0, {0}
8200004c:	f57ff06f 	isb	sy
82000050:	e59f0110 	ldr	r0, [pc, #272]	@ 82000168 <fiq_handler+0xc>
82000054:	e59f1110 	ldr	r1, [pc, #272]	@ 8200016c <fiq_handler+0x10>
82000058:	e3a02000 	mov	r2, #0

8200005c <bss_loop>:
8200005c:	e1500001 	cmp	r0, r1
82000060:	b4802004 	strlt	r2, [r0], #4
82000064:	bafffffc 	blt	8200005c <bss_loop>
82000068:	f57ff04f 	dsb	sy
8200006c:	f57ff06f 	isb	sy
82000070:	eb00005e 	bl	820001f0 <main>

82000074 <halt>:
82000074:	eafffffe 	b	82000074 <halt>

82000078 <irq_handler>:
82000078:	e52d0004 	push	{r0}		@ (str r0, [sp, #-4]!)
8200007c:	e59f00ec 	ldr	r0, [pc, #236]	@ 82000170 <fiq_handler+0x14>
82000080:	e49d1004 	pop	{r1}		@ (ldr r1, [sp], #4)
82000084:	e5801000 	str	r1, [r0]
82000088:	e5802004 	str	r2, [r0, #4]
8200008c:	e5803008 	str	r3, [r0, #8]
82000090:	e580400c 	str	r4, [r0, #12]
82000094:	e5805010 	str	r5, [r0, #16]
82000098:	e5806014 	str	r6, [r0, #20]
8200009c:	e5807018 	str	r7, [r0, #24]
820000a0:	e580801c 	str	r8, [r0, #28]
820000a4:	e5809020 	str	r9, [r0, #32]
820000a8:	e580a024 	str	sl, [r0, #36]	@ 0x24
820000ac:	e580b028 	str	fp, [r0, #40]	@ 0x28
820000b0:	e580c02c 	str	ip, [r0, #44]	@ 0x2c
820000b4:	e59f10b8 	ldr	r1, [pc, #184]	@ 82000174 <fiq_handler+0x18>
820000b8:	e581e000 	str	lr, [r1]
820000bc:	e10f2000 	mrs	r2, CPSR
820000c0:	e3c2301f 	bic	r3, r2, #31
820000c4:	e3833093 	orr	r3, r3, #147	@ 0x93
820000c8:	e121f003 	msr	CPSR_c, r3
820000cc:	e59f40a4 	ldr	r4, [pc, #164]	@ 82000178 <fiq_handler+0x1c>
820000d0:	e584d000 	str	sp, [r4]
820000d4:	e59f40a0 	ldr	r4, [pc, #160]	@ 8200017c <fiq_handler+0x20>
820000d8:	e584e000 	str	lr, [r4]
820000dc:	e121f002 	msr	CPSR_c, r2
820000e0:	eb000039 	bl	820001cc <timer_irq_handler>
820000e4:	e10f2000 	mrs	r2, CPSR
820000e8:	e3c2301f 	bic	r3, r2, #31
820000ec:	e3833093 	orr	r3, r3, #147	@ 0x93
820000f0:	e121f003 	msr	CPSR_c, r3
820000f4:	e59f407c 	ldr	r4, [pc, #124]	@ 82000178 <fiq_handler+0x1c>
820000f8:	e594d000 	ldr	sp, [r4]
820000fc:	e59f4078 	ldr	r4, [pc, #120]	@ 8200017c <fiq_handler+0x20>
82000100:	e594e000 	ldr	lr, [r4]
82000104:	e121f002 	msr	CPSR_c, r2
82000108:	e59f0060 	ldr	r0, [pc, #96]	@ 82000170 <fiq_handler+0x14>
8200010c:	e5901004 	ldr	r1, [r0, #4]
82000110:	e5902008 	ldr	r2, [r0, #8]
82000114:	e590300c 	ldr	r3, [r0, #12]
82000118:	e5904010 	ldr	r4, [r0, #16]
8200011c:	e5905014 	ldr	r5, [r0, #20]
82000120:	e5906018 	ldr	r6, [r0, #24]
82000124:	e590701c 	ldr	r7, [r0, #28]
82000128:	e5908020 	ldr	r8, [r0, #32]
8200012c:	e5909024 	ldr	r9, [r0, #36]	@ 0x24
82000130:	e590a028 	ldr	sl, [r0, #40]	@ 0x28
82000134:	e590b02c 	ldr	fp, [r0, #44]	@ 0x2c
82000138:	e590c030 	ldr	ip, [r0, #48]	@ 0x30
8200013c:	e59fe030 	ldr	lr, [pc, #48]	@ 82000174 <fiq_handler+0x18>
82000140:	e59ee000 	ldr	lr, [lr]
82000144:	e5900000 	ldr	r0, [r0]
82000148:	e25ef004 	subs	pc, lr, #4

8200014c <undef_handler>:
8200014c:	eafffffe 	b	8200014c <undef_handler>

82000150 <swi_handler>:
82000150:	eafffffe 	b	82000150 <swi_handler>

82000154 <prefetch_handler>:
82000154:	eafffffe 	b	82000154 <prefetch_handler>

82000158 <data_handler>:
82000158:	eafffffe 	b	82000158 <data_handler>

8200015c <fiq_handler>:
8200015c:	eafffffe 	b	8200015c <fiq_handler>
82000160:	82012000 	.word	0x82012000
82000164:	82000000 	.word	0x82000000
82000168:	82000878 	.word	0x82000878
8200016c:	8200099c 	.word	0x8200099c
82000170:	82000884 	.word	0x82000884
82000174:	82000880 	.word	0x82000880
82000178:	8200087c 	.word	0x8200087c
8200017c:	82000878 	.word	0x82000878

82000180 <uart_putc>:
82000180:	e3a02a09 	mov	r2, #36864	@ 0x9000
82000184:	e34424e0 	movt	r2, #17632	@ 0x44e0
82000188:	e5923014 	ldr	r3, [r2, #20]
8200018c:	e3130020 	tst	r3, #32
82000190:	0afffffc 	beq	82000188 <uart_putc+0x8>
82000194:	e3a03a09 	mov	r3, #36864	@ 0x9000
82000198:	e34434e0 	movt	r3, #17632	@ 0x44e0
8200019c:	e5830000 	str	r0, [r3]
820001a0:	e12fff1e 	bx	lr

820001a4 <uart_puts>:
820001a4:	e92d4010 	push	{r4, lr}
820001a8:	e1a04000 	mov	r4, r0
820001ac:	e5d00000 	ldrb	r0, [r0]
820001b0:	e3500000 	cmp	r0, #0
820001b4:	08bd8010 	popeq	{r4, pc}
820001b8:	ebfffff0 	bl	82000180 <uart_putc>
820001bc:	e5f40001 	ldrb	r0, [r4, #1]!
820001c0:	e3500000 	cmp	r0, #0
820001c4:	1afffffb 	bne	820001b8 <uart_puts+0x14>
820001c8:	e8bd8010 	pop	{r4, pc}

820001cc <timer_irq_handler>:
820001cc:	e3a03000 	mov	r3, #0
820001d0:	e3443804 	movt	r3, #18436	@ 0x4804
820001d4:	e3a02002 	mov	r2, #2
820001d8:	e5832028 	str	r2, [r3, #40]	@ 0x28
820001dc:	e3a03000 	mov	r3, #0
820001e0:	e3443820 	movt	r3, #18464	@ 0x4820
820001e4:	e3a02001 	mov	r2, #1
820001e8:	e5832048 	str	r2, [r3, #72]	@ 0x48
820001ec:	e12fff1e 	bx	lr

820001f0 <main>:
820001f0:	e92d4010 	push	{r4, lr}
820001f4:	e3a03a05 	mov	r3, #20480	@ 0x5000
820001f8:	e34434e3 	movt	r3, #17635	@ 0x44e3
820001fc:	e30a2aaa 	movw	r2, #43690	@ 0xaaaa
82000200:	e5832048 	str	r2, [r3, #72]	@ 0x48
82000204:	e3a02a05 	mov	r2, #20480	@ 0x5000
82000208:	e34424e3 	movt	r2, #17635	@ 0x44e3
8200020c:	e5923034 	ldr	r3, [r2, #52]	@ 0x34
82000210:	e3130010 	tst	r3, #16
82000214:	1afffffc 	bne	8200020c <main+0x1c>
82000218:	e3a03a05 	mov	r3, #20480	@ 0x5000
8200021c:	e34434e3 	movt	r3, #17635	@ 0x44e3
82000220:	e3052555 	movw	r2, #21845	@ 0x5555
82000224:	e5832048 	str	r2, [r3, #72]	@ 0x48
82000228:	e3a02a05 	mov	r2, #20480	@ 0x5000
8200022c:	e34424e3 	movt	r2, #17635	@ 0x44e3
82000230:	e5923034 	ldr	r3, [r2, #52]	@ 0x34
82000234:	e3130010 	tst	r3, #16
82000238:	1afffffc 	bne	82000230 <main+0x40>
8200023c:	e30006f8 	movw	r0, #1784	@ 0x6f8
82000240:	e3480200 	movt	r0, #33280	@ 0x8200
82000244:	ebffffd6 	bl	820001a4 <uart_puts>
82000248:	e3a03000 	mov	r3, #0
8200024c:	e3443804 	movt	r3, #18436	@ 0x4804
82000250:	e3a02000 	mov	r2, #0
82000254:	e5832038 	str	r2, [r3, #56]	@ 0x38
82000258:	e3a02cca 	mov	r2, #51712	@ 0xca00
8200025c:	e34f2e91 	movt	r2, #65169	@ 0xfe91
82000260:	e5832040 	str	r2, [r3, #64]	@ 0x40
82000264:	e583203c 	str	r2, [r3, #60]	@ 0x3c
82000268:	e3a04002 	mov	r4, #2
8200026c:	e5834028 	str	r4, [r3, #40]	@ 0x28
82000270:	e583402c 	str	r4, [r3, #44]	@ 0x2c
82000274:	e3a02003 	mov	r2, #3
82000278:	e5832038 	str	r2, [r3, #56]	@ 0x38
8200027c:	e3000724 	movw	r0, #1828	@ 0x724
82000280:	e3480200 	movt	r0, #33280	@ 0x8200
82000284:	ebffffc6 	bl	820001a4 <uart_puts>
82000288:	e3a03000 	mov	r3, #0
8200028c:	e3443820 	movt	r3, #18464	@ 0x4820
82000290:	e5834010 	str	r4, [r3, #16]
82000294:	e3a02000 	mov	r2, #0
82000298:	e3442820 	movt	r2, #18464	@ 0x4820
8200029c:	e5923014 	ldr	r3, [r2, #20]
820002a0:	e3130001 	tst	r3, #1
820002a4:	0afffffc 	beq	8200029c <main+0xac>
820002a8:	e3a03000 	mov	r3, #0
820002ac:	e3443820 	movt	r3, #18464	@ 0x4820
820002b0:	e3a02010 	mov	r2, #16
820002b4:	e58320c8 	str	r2, [r3, #200]	@ 0xc8
820002b8:	e3000740 	movw	r0, #1856	@ 0x740
820002bc:	e3480200 	movt	r0, #33280	@ 0x8200
820002c0:	ebffffb7 	bl	820001a4 <uart_puts>
820002c4:	f57ff04f 	dsb	sy
820002c8:	f57ff06f 	isb	sy
820002cc:	e10f0000 	mrs	r0, CPSR
820002d0:	e3c00080 	bic	r0, r0, #128	@ 0x80
820002d4:	e121f000 	msr	CPSR_c, r0
820002d8:	e3000768 	movw	r0, #1896	@ 0x768
820002dc:	e3480200 	movt	r0, #33280	@ 0x8200
820002e0:	ebffffaf 	bl	820001a4 <uart_puts>
820002e4:	eb000024 	bl	8200037c <scheduler_init>
820002e8:	e320f003 	wfi
820002ec:	eafffffd 	b	820002e8 <main+0xf8>

820002f0 <os_main>:
820002f0:	e92d4010 	push	{r4, lr}
820002f4:	e300477c 	movw	r4, #1916	@ 0x77c
820002f8:	e3484200 	movt	r4, #33280	@ 0x8200
820002fc:	e1a00004 	mov	r0, r4
82000300:	ebffffa7 	bl	820001a4 <uart_puts>
82000304:	e3005780 	movw	r5, #1920	@ 0x780
82000308:	e3485200 	movt	r5, #33280	@ 0x8200
8200030c:	e1a00005 	mov	r0, r5
82000310:	ebffffa3 	bl	820001a4 <uart_puts>
82000314:	e30007ac 	movw	r0, #1964	@ 0x7ac
82000318:	e3480200 	movt	r0, #33280	@ 0x8200
8200031c:	ebffffa0 	bl	820001a4 <uart_puts>
82000320:	e1a00005 	mov	r0, r5
82000324:	ebffff9e 	bl	820001a4 <uart_puts>
82000328:	e30007d8 	movw	r0, #2008	@ 0x7d8
8200032c:	e3480200 	movt	r0, #33280	@ 0x8200
82000330:	ebffff9b 	bl	820001a4 <uart_puts>
82000334:	e3000800 	movw	r0, #2048	@ 0x800
82000338:	e3480200 	movt	r0, #33280	@ 0x8200
8200033c:	ebffff98 	bl	820001a4 <uart_puts>
82000340:	e1a00004 	mov	r0, r4
82000344:	ebffff96 	bl	820001a4 <uart_puts>
82000348:	eb00000b 	bl	8200037c <scheduler_init>
8200034c:	e1a00004 	mov	r0, r4
82000350:	ebffff93 	bl	820001a4 <uart_puts>
82000354:	e3000828 	movw	r0, #2088	@ 0x828
82000358:	e3480200 	movt	r0, #33280	@ 0x8200
8200035c:	ebffff90 	bl	820001a4 <uart_puts>
82000360:	e3000840 	movw	r0, #2112	@ 0x840
82000364:	e3480200 	movt	r0, #33280	@ 0x8200
82000368:	ebffff8d 	bl	820001a4 <uart_puts>
8200036c:	e1a00004 	mov	r0, r4
82000370:	ebffff8b 	bl	820001a4 <uart_puts>
82000374:	e320f003 	wfi
82000378:	eafffffd 	b	82000374 <os_main+0x84>

8200037c <scheduler_init>:
8200037c:	e52de004 	push	{lr}		@ (str lr, [sp, #-4]!)
82000380:	e30008b8 	movw	r0, #2232	@ 0x8b8
82000384:	e3480200 	movt	r0, #33280	@ 0x8200
82000388:	e3a02000 	mov	r2, #0
8200038c:	e580204c 	str	r2, [r0, #76]	@ 0x4c
82000390:	e5802058 	str	r2, [r0, #88]	@ 0x58
82000394:	e1a03000 	mov	r3, r0
82000398:	e5a3205c 	str	r2, [r3, #92]!	@ 0x5c
8200039c:	e280c090 	add	ip, r0, #144	@ 0x90
820003a0:	e1a02003 	mov	r2, r3
820003a4:	e3a01000 	mov	r1, #0
820003a8:	e5a21004 	str	r1, [r2, #4]!
820003ac:	e152000c 	cmp	r2, ip
820003b0:	1afffffc 	bne	820003a8 <scheduler_init+0x2c>
820003b4:	e30028b8 	movw	r2, #2232	@ 0x8b8
820003b8:	e3482200 	movt	r2, #33280	@ 0x8200
820003bc:	e3a01000 	mov	r1, #0
820003c0:	e5821098 	str	r1, [r2, #152]	@ 0x98
820003c4:	e58210a4 	str	r1, [r2, #164]	@ 0xa4
820003c8:	e58210a8 	str	r1, [r2, #168]	@ 0xa8
820003cc:	e28020a8 	add	r2, r0, #168	@ 0xa8
820003d0:	e28000dc 	add	r0, r0, #220	@ 0xdc
820003d4:	e1a01002 	mov	r1, r2
820003d8:	e3a0e000 	mov	lr, #0
820003dc:	e5a1e004 	str	lr, [r1, #4]!
820003e0:	e1510000 	cmp	r1, r0
820003e4:	1afffffc 	bne	820003dc <scheduler_init+0x60>
820003e8:	e30018b8 	movw	r1, #2232	@ 0x8b8
820003ec:	e3481200 	movt	r1, #33280	@ 0x8200
820003f0:	e3a0e000 	mov	lr, #0
820003f4:	e5c1e0e0 	strb	lr, [r1, #224]	@ 0xe0
820003f8:	e1a0100e 	mov	r1, lr
820003fc:	e5a31004 	str	r1, [r3, #4]!
82000400:	e153000c 	cmp	r3, ip
82000404:	1afffffc 	bne	820003fc <scheduler_init+0x80>
82000408:	e30038b8 	movw	r3, #2232	@ 0x8b8
8200040c:	e3483200 	movt	r3, #33280	@ 0x8200
82000410:	e3a01000 	mov	r1, #0
82000414:	e3481210 	movt	r1, #33296	@ 0x8210
82000418:	e5831050 	str	r1, [r3, #80]	@ 0x50
8200041c:	e3a01a02 	mov	r1, #8192	@ 0x2000
82000420:	e3481211 	movt	r1, #33297	@ 0x8211
82000424:	e5831054 	str	r1, [r3, #84]	@ 0x54
82000428:	e3a03000 	mov	r3, #0
8200042c:	e5a23004 	str	r3, [r2, #4]!
82000430:	e1520000 	cmp	r2, r0
82000434:	1afffffc 	bne	8200042c <scheduler_init+0xb0>
82000438:	e30038b8 	movw	r3, #2232	@ 0x8b8
8200043c:	e3483200 	movt	r3, #33280	@ 0x8200
82000440:	e3a02000 	mov	r2, #0
82000444:	e3482220 	movt	r2, #33312	@ 0x8220
82000448:	e583209c 	str	r2, [r3, #156]	@ 0x9c
8200044c:	e3a02a02 	mov	r2, #8192	@ 0x2000
82000450:	e3482221 	movt	r2, #33313	@ 0x8221
82000454:	e58320a0 	str	r2, [r3, #160]	@ 0xa0
82000458:	e3002874 	movw	r2, #2164	@ 0x874
8200045c:	e3482200 	movt	r2, #33280	@ 0x8200
82000460:	e3a01001 	mov	r1, #1
82000464:	e5821000 	str	r1, [r2]
82000468:	e5c31094 	strb	r1, [r3, #148]	@ 0x94
8200046c:	e49df004 	pop	{pc}		@ (ldr pc, [sp], #4)

82000470 <scheduler_current>:
82000470:	e30038b8 	movw	r3, #2232	@ 0x8b8
82000474:	e3483200 	movt	r3, #33280	@ 0x8200
82000478:	e3002874 	movw	r2, #2164	@ 0x874
8200047c:	e3482200 	movt	r2, #33280	@ 0x8200
82000480:	e5922000 	ldr	r2, [r2]
82000484:	e3a0004c 	mov	r0, #76	@ 0x4c
82000488:	e0203290 	mla	r0, r0, r2, r3
8200048c:	e12fff1e 	bx	lr

82000490 <print_uint>:
82000490:	e92d4030 	push	{r4, r5, lr}
82000494:	e24dd014 	sub	sp, sp, #20
82000498:	e3500000 	cmp	r0, #0
8200049c:	0a000018 	beq	82000504 <print_uint+0x74>
820004a0:	e28d5004 	add	r5, sp, #4
820004a4:	e1a01005 	mov	r1, r5
820004a8:	e3a04000 	mov	r4, #0
820004ac:	e30ccccd 	movw	ip, #52429	@ 0xcccd
820004b0:	e34ccccc 	movt	ip, #52428	@ 0xcccc
820004b4:	e3a0e00a 	mov	lr, #10
820004b8:	e083209c 	umull	r2, r3, ip, r0
820004bc:	e1a031a3 	lsr	r3, r3, #3
820004c0:	e062039e 	mls	r2, lr, r3, r0
820004c4:	e2822030 	add	r2, r2, #48	@ 0x30
820004c8:	e4c12001 	strb	r2, [r1], #1
820004cc:	e2844001 	add	r4, r4, #1
820004d0:	e1a02000 	mov	r2, r0
820004d4:	e1a00003 	mov	r0, r3
820004d8:	e3520009 	cmp	r2, #9
820004dc:	8afffff5 	bhi	820004b8 <print_uint+0x28>
820004e0:	e3540000 	cmp	r4, #0
820004e4:	da000004 	ble	820004fc <print_uint+0x6c>
820004e8:	e0844005 	add	r4, r4, r5
820004ec:	e5740001 	ldrb	r0, [r4, #-1]!
820004f0:	ebffff22 	bl	82000180 <uart_putc>
820004f4:	e1550004 	cmp	r5, r4
820004f8:	1afffffb 	bne	820004ec <print_uint+0x5c>
820004fc:	e28dd014 	add	sp, sp, #20
82000500:	e8bd8030 	pop	{r4, r5, pc}
82000504:	e3a00030 	mov	r0, #48	@ 0x30
82000508:	ebffff1c 	bl	82000180 <uart_putc>
8200050c:	eafffffa 	b	820004fc <print_uint+0x6c>

82000510 <print_int>:
82000510:	e92d4010 	push	{r4, lr}
82000514:	e2504000 	subs	r4, r0, #0
82000518:	ba000002 	blt	82000528 <print_int+0x18>
8200051c:	e1a00004 	mov	r0, r4
82000520:	ebffffda 	bl	82000490 <print_uint>
82000524:	e8bd8010 	pop	{r4, pc}
82000528:	e3a0002d 	mov	r0, #45	@ 0x2d
8200052c:	ebffff13 	bl	82000180 <uart_putc>
82000530:	e2640000 	rsb	r0, r4, #0
82000534:	ebffffd5 	bl	82000490 <print_uint>
82000538:	e8bd8010 	pop	{r4, pc}

8200053c <print_hex>:
8200053c:	e92d4030 	push	{r4, r5, lr}
82000540:	e24dd01c 	sub	sp, sp, #28
82000544:	e1a05000 	mov	r5, r0
82000548:	e28de004 	add	lr, sp, #4
8200054c:	e300c860 	movw	ip, #2144	@ 0x860
82000550:	e348c200 	movt	ip, #33280	@ 0x8200
82000554:	e8bc000f 	ldm	ip!, {r0, r1, r2, r3}
82000558:	e8ae000f 	stmia	lr!, {r0, r1, r2, r3}
8200055c:	e59c3000 	ldr	r3, [ip]
82000560:	e5ce3000 	strb	r3, [lr]
82000564:	e3a00030 	mov	r0, #48	@ 0x30
82000568:	ebffff04 	bl	82000180 <uart_putc>
8200056c:	e3a00078 	mov	r0, #120	@ 0x78
82000570:	ebffff02 	bl	82000180 <uart_putc>
82000574:	e3a0401c 	mov	r4, #28
82000578:	e1a03435 	lsr	r3, r5, r4
8200057c:	e203300f 	and	r3, r3, #15
82000580:	e2833018 	add	r3, r3, #24
82000584:	e08d3003 	add	r3, sp, r3
82000588:	e5530014 	ldrb	r0, [r3, #-20]	@ 0xffffffec
8200058c:	ebfffefb 	bl	82000180 <uart_putc>
82000590:	e2444004 	sub	r4, r4, #4
82000594:	e3740004 	cmn	r4, #4
82000598:	1afffff6 	bne	82000578 <print_hex+0x3c>
8200059c:	e28dd01c 	add	sp, sp, #28
820005a0:	e8bd8030 	pop	{r4, r5, pc}

820005a4 <str_len>:
820005a4:	e5d03000 	ldrb	r3, [r0]
820005a8:	e3530000 	cmp	r3, #0
820005ac:	0a000007 	beq	820005d0 <str_len+0x2c>
820005b0:	e1a03000 	mov	r3, r0
820005b4:	e1a01003 	mov	r1, r3
820005b8:	e5f32001 	ldrb	r2, [r3, #1]!
820005bc:	e3520000 	cmp	r2, #0
820005c0:	1afffffb 	bne	820005b4 <str_len+0x10>
820005c4:	e2600001 	rsb	r0, r0, #1
820005c8:	e0800001 	add	r0, r0, r1
820005cc:	e12fff1e 	bx	lr
820005d0:	e3a00000 	mov	r0, #0
820005d4:	e12fff1e 	bx	lr

820005d8 <str_cmp>:
820005d8:	e5d02000 	ldrb	r2, [r0]
820005dc:	e3520000 	cmp	r2, #0
820005e0:	0a000009 	beq	8200060c <str_cmp+0x34>
820005e4:	e1a03001 	mov	r3, r1
820005e8:	e1a01003 	mov	r1, r3
820005ec:	e5d3c000 	ldrb	ip, [r3]
820005f0:	e15c0002 	cmp	ip, r2
820005f4:	1a000004 	bne	8200060c <str_cmp+0x34>
820005f8:	e2833001 	add	r3, r3, #1
820005fc:	e5f02001 	ldrb	r2, [r0, #1]!
82000600:	e3520000 	cmp	r2, #0
82000604:	1afffff7 	bne	820005e8 <str_cmp+0x10>
82000608:	e1a01003 	mov	r1, r3
8200060c:	e5d10000 	ldrb	r0, [r1]
82000610:	e0420000 	sub	r0, r2, r0
82000614:	e12fff1e 	bx	lr

82000618 <str_cpy>:
82000618:	e2402001 	sub	r2, r0, #1
8200061c:	e4d13001 	ldrb	r3, [r1], #1
82000620:	e5e23001 	strb	r3, [r2, #1]!
82000624:	e3530000 	cmp	r3, #0
82000628:	1afffffb 	bne	8200061c <str_cpy+0x4>
8200062c:	e12fff1e 	bx	lr

82000630 <str_ncpy>:
82000630:	e3520000 	cmp	r2, #0
82000634:	012fff1e 	bxeq	lr
82000638:	e2411001 	sub	r1, r1, #1
8200063c:	e1a03000 	mov	r3, r0
82000640:	e5f1c001 	ldrb	ip, [r1, #1]!
82000644:	e35c0000 	cmp	ip, #0
82000648:	0a000003 	beq	8200065c <str_ncpy+0x2c>
8200064c:	e4c3c001 	strb	ip, [r3], #1
82000650:	e2522001 	subs	r2, r2, #1
82000654:	1afffff9 	bne	82000640 <str_ncpy+0x10>
82000658:	e12fff1e 	bx	lr
8200065c:	e0832002 	add	r2, r3, r2
82000660:	e3a01000 	mov	r1, #0
82000664:	e4c31001 	strb	r1, [r3], #1
82000668:	e1520003 	cmp	r2, r3
8200066c:	1afffffc 	bne	82000664 <str_ncpy+0x34>
82000670:	e12fff1e 	bx	lr

82000674 <str_cat>:
82000674:	e5d03000 	ldrb	r3, [r0]
82000678:	e3530000 	cmp	r3, #0
8200067c:	0a000009 	beq	820006a8 <str_cat+0x34>
82000680:	e1a03000 	mov	r3, r0
82000684:	e5f32001 	ldrb	r2, [r3, #1]!
82000688:	e3520000 	cmp	r2, #0
8200068c:	1afffffc 	bne	82000684 <str_cat+0x10>
82000690:	e2433001 	sub	r3, r3, #1
82000694:	e4d12001 	ldrb	r2, [r1], #1
82000698:	e5e32001 	strb	r2, [r3, #1]!
8200069c:	e3520000 	cmp	r2, #0
820006a0:	1afffffb 	bne	82000694 <str_cat+0x20>
820006a4:	e12fff1e 	bx	lr
820006a8:	e1a03000 	mov	r3, r0
820006ac:	eafffff7 	b	82000690 <str_cat+0x1c>

820006b0 <mem_set>:
820006b0:	e3520000 	cmp	r2, #0
820006b4:	012fff1e 	bxeq	lr
820006b8:	e6ef1071 	uxtb	r1, r1
820006bc:	e0802002 	add	r2, r0, r2
820006c0:	e1a03000 	mov	r3, r0
820006c4:	e4c31001 	strb	r1, [r3], #1
820006c8:	e1520003 	cmp	r2, r3
820006cc:	1afffffc 	bne	820006c4 <mem_set+0x14>
820006d0:	e12fff1e 	bx	lr

820006d4 <mem_cpy>:
820006d4:	e3520000 	cmp	r2, #0
820006d8:	012fff1e 	bxeq	lr
820006dc:	e2403001 	sub	r3, r0, #1
820006e0:	e0812002 	add	r2, r1, r2
820006e4:	e4d1c001 	ldrb	ip, [r1], #1
820006e8:	e5e3c001 	strb	ip, [r3, #1]!
820006ec:	e1510002 	cmp	r1, r2
820006f0:	1afffffb 	bne	820006e4 <mem_cpy+0x10>
820006f4:	e12fff1e 	bx	lr
820006f8:	4f5b0a0d 	.word	0x4f5b0a0d
820006fc:	4d205d53 	.word	0x4d205d53
82000700:	69746c75 	.word	0x69746c75
82000704:	676f7270 	.word	0x676f7270
82000708:	6d6d6172 	.word	0x6d6d6172
8200070c:	20676e69 	.word	0x20676e69
82000710:	7320534f 	.word	0x7320534f
82000714:	74726174 	.word	0x74726174
82000718:	2e676e69 	.word	0x2e676e69
8200071c:	0a0d2e2e 	.word	0x0a0d2e2e
82000720:	00000000 	.word	0x00000000
82000724:	5d534f5b 	.word	0x5d534f5b
82000728:	544d4420 	.word	0x544d4420
8200072c:	72656d69 	.word	0x72656d69
82000730:	6f632032 	.word	0x6f632032
82000734:	6769666e 	.word	0x6769666e
82000738:	64657275 	.word	0x64657275
8200073c:	00000a0d 	.word	0x00000a0d
82000740:	5d534f5b 	.word	0x5d534f5b
82000744:	544e4920 	.word	0x544e4920
82000748:	6f632043 	.word	0x6f632043
8200074c:	6769666e 	.word	0x6769666e
82000750:	64657275 	.word	0x64657275
82000754:	5249202c 	.word	0x5249202c
82000758:	38362051 	.word	0x38362051
8200075c:	6d6e7520 	.word	0x6d6e7520
82000760:	656b7361 	.word	0x656b7361
82000764:	000a0d64 	.word	0x000a0d64
82000768:	5d534f5b 	.word	0x5d534f5b
8200076c:	51524920 	.word	0x51524920
82000770:	616e6520 	.word	0x616e6520
82000774:	64656c62 	.word	0x64656c62
82000778:	00000a0d 	.word	0x00000a0d
8200077c:	00000a0d 	.word	0x00000a0d
82000780:	3d3d3d3d 	.word	0x3d3d3d3d
82000784:	3d3d3d3d 	.word	0x3d3d3d3d
82000788:	3d3d3d3d 	.word	0x3d3d3d3d
8200078c:	3d3d3d3d 	.word	0x3d3d3d3d
82000790:	3d3d3d3d 	.word	0x3d3d3d3d
82000794:	3d3d3d3d 	.word	0x3d3d3d3d
82000798:	3d3d3d3d 	.word	0x3d3d3d3d
8200079c:	3d3d3d3d 	.word	0x3d3d3d3d
820007a0:	3d3d3d3d 	.word	0x3d3d3d3d
820007a4:	3d3d3d3d 	.word	0x3d3d3d3d
820007a8:	00000a0d 	.word	0x00000a0d
820007ac:	65422020 	.word	0x65422020
820007b0:	656c6761 	.word	0x656c6761
820007b4:	656e6f42 	.word	0x656e6f42
820007b8:	72614220 	.word	0x72614220
820007bc:	654d2d65 	.word	0x654d2d65
820007c0:	206c6174 	.word	0x206c6174
820007c4:	746c754d 	.word	0x746c754d
820007c8:	6f727069 	.word	0x6f727069
820007cc:	6d617267 	.word	0x6d617267
820007d0:	676e696d 	.word	0x676e696d
820007d4:	00000a0d 	.word	0x00000a0d
820007d8:	5d534f5b 	.word	0x5d534f5b
820007dc:	72614820 	.word	0x72614820
820007e0:	72617764 	.word	0x72617764
820007e4:	6e692065 	.word	0x6e692065
820007e8:	63207469 	.word	0x63207469
820007ec:	6c706d6f 	.word	0x6c706d6f
820007f0:	206f7465 	.word	0x206f7465
820007f4:	76654428 	.word	0x76654428
820007f8:	0d294120 	.word	0x0d294120
820007fc:	0000000a 	.word	0x0000000a
82000800:	5d534f5b 	.word	0x5d534f5b
82000804:	696e4920 	.word	0x696e4920
82000808:	6e616963 	.word	0x6e616963
8200080c:	73206f64 	.word	0x73206f64
82000810:	64656863 	.word	0x64656863
82000814:	72656c75 	.word	0x72656c75
82000818:	20202020 	.word	0x20202020
8200081c:	76654428 	.word	0x76654428
82000820:	0d294220 	.word	0x0d294220
82000824:	0000000a 	.word	0x0000000a
82000828:	5d534f5b 	.word	0x5d534f5b
8200082c:	68635320 	.word	0x68635320
82000830:	6c756465 	.word	0x6c756465
82000834:	6c207265 	.word	0x6c207265
82000838:	6f747369 	.word	0x6f747369
8200083c:	000a0d2e 	.word	0x000a0d2e
82000840:	5d534f5b 	.word	0x5d534f5b
82000844:	746e4520 	.word	0x746e4520
82000848:	646e6172 	.word	0x646e6172
8200084c:	6e65206f 	.word	0x6e65206f
82000850:	6c646920 	.word	0x6c646920
82000854:	6f6c2065 	.word	0x6f6c2065
82000858:	2e2e706f 	.word	0x2e2e706f
8200085c:	000a0d2e 	.word	0x000a0d2e
82000860:	33323130 	.word	0x33323130
82000864:	37363534 	.word	0x37363534
82000868:	42413938 	.word	0x42413938
8200086c:	46454443 	.word	0x46454443
	...
